(dp0
S'id'
p1
(dp2
S'rname'
p3
S'"id"'
p4
sS'sortable'
p5
I1
sS'raw_rname'
p6
S'id'
p7
sS'notnull'
p8
I00
sS'length'
p9
I512
sS'sql'
p10
S'INTEGER PRIMARY KEY AUTOINCREMENT'
p11
sS'unique'
p12
I00
sS'type'
p13
g7
ssS'telefone'
p14
(dp15
g3
S'"telefone"'
p16
sg5
I3
sg6
S'telefone'
p17
sg8
I00
sg9
I512
sg10
S'INTEGER'
p18
sg12
I00
sg13
S'integer'
p19
ssS'nome'
p20
(dp21
g3
S'"nome"'
p22
sg5
I2
sg6
S'nome'
p23
sg8
I00
sg9
I512
sg10
S'CHAR(512)'
p24
sg12
I00
sg13
S'string'
p25
ss.